; Function Attrs: mustprogress nofree norecurse nosync nounwind willreturn memory(argmem: readwrite) uwtable
define hidden void @_ZN3mpfC2Ev(ptr nocapture noundef nonnull align 8 dereferenceable(32) %this) unnamed_addr #3 align 2 {
entry:
  store i32 0, ptr %this, align 8
  %significand = getelementptr inbounds i8, ptr %this, i64 8
  store i32 0, ptr %significand, align 8
  %m_kind.i = getelementptr inbounds i8, ptr %this, i64 12
  %bf.load.i = load i8, ptr %m_kind.i, align 4
  %bf.clear3.i = and i8 %bf.load.i, -4
  store i8 %bf.clear3.i, ptr %m_kind.i, align 4
  %m_ptr.i = getelementptr inbounds i8, ptr %this, i64 16
  tail call void @llvm.memset.p0.i64(ptr noundef nonnull align 8 dereferenceable(16) %m_ptr.i, i8 0, i64 16, i1 false)
  ret void
}